target datalayout = "e-m:e-p270:32:32-p271:32:32-p272:64:64-i64:64-i128:128-f80:128-n8:16:32:64-S128"
target triple = "x86_64-unknown-linux-gnu"

; Function Attrs: mustprogress nounwind uwtable
define dso_local noundef float @_ZN17btTypedConstraint14getMotorFactorEfffff(ptr noundef nonnull align 8 dereferenceable(72) %this, float noundef %pos, float noundef %lowLim, float noundef %uppLim, float noundef %vel, float noundef %timeFact) #1 align 2 {
entry:
  %retval = alloca float, align 4
  %this.addr = alloca ptr, align 8
  %pos.addr = alloca float, align 4
  %lowLim.addr = alloca float, align 4
  %uppLim.addr = alloca float, align 4
  %vel.addr = alloca float, align 4
  %timeFact.addr = alloca float, align 4
  %lim_fact = alloca float, align 4
  %delta_max = alloca float, align 4
  store ptr %this, ptr %this.addr, align 8
  store float %pos, ptr %pos.addr, align 4
  store float %lowLim, ptr %lowLim.addr, align 4
  store float %uppLim, ptr %uppLim.addr, align 4
  store float %vel, ptr %vel.addr, align 4
  store float %timeFact, ptr %timeFact.addr, align 4
  %0 = load float, ptr %lowLim.addr, align 4
  %1 = load float, ptr %uppLim.addr, align 4
  %cmp = fcmp ogt float %0, %1
  br i1 %cmp, label %if.then, label %if.else

if.then:                                          ; preds = %entry
  store float 1.000000e+00, ptr %retval, align 4
  br label %return

if.else:                                          ; preds = %entry
  %2 = load float, ptr %lowLim.addr, align 4
  %3 = load float, ptr %uppLim.addr, align 4
  %cmp2 = fcmp oeq float %2, %3
  br i1 %cmp2, label %if.then3, label %if.end

if.then3:                                         ; preds = %if.else
  store float 0.000000e+00, ptr %retval, align 4
  br label %return

if.end:                                           ; preds = %if.else
  br label %if.end4

if.end4:                                          ; preds = %if.end
  store float 1.000000e+00, ptr %lim_fact, align 4
  %4 = load float, ptr %vel.addr, align 4
  %5 = load float, ptr %timeFact.addr, align 4
  %div = fdiv float %4, %5
  store float %div, ptr %delta_max, align 4
  %6 = load float, ptr %delta_max, align 4
  %cmp5 = fcmp olt float %6, 0.000000e+00
  br i1 %cmp5, label %if.then6, label %if.else18

if.then6:                                         ; preds = %if.end4
  %7 = load float, ptr %pos.addr, align 4
  %8 = load float, ptr %lowLim.addr, align 4
  %cmp7 = fcmp oge float %7, %8
  br i1 %cmp7, label %land.lhs.true, label %if.else12

land.lhs.true:                                    ; preds = %if.then6
  %9 = load float, ptr %pos.addr, align 4
  %10 = load float, ptr %lowLim.addr, align 4
  %11 = load float, ptr %delta_max, align 4
  %sub = fsub float %10, %11
  %cmp8 = fcmp olt float %9, %sub
  br i1 %cmp8, label %if.then9, label %if.else12

if.then9:                                         ; preds = %land.lhs.true
  %12 = load float, ptr %lowLim.addr, align 4
  %13 = load float, ptr %pos.addr, align 4
  %sub10 = fsub float %12, %13
  %14 = load float, ptr %delta_max, align 4
  %div11 = fdiv float %sub10, %14
  store float %div11, ptr %lim_fact, align 4
  br label %if.end17

if.else12:                                        ; preds = %land.lhs.true, %if.then6
  %15 = load float, ptr %pos.addr, align 4
  %16 = load float, ptr %lowLim.addr, align 4
  %cmp13 = fcmp olt float %15, %16
  br i1 %cmp13, label %if.then14, label %if.else15

if.then14:                                        ; preds = %if.else12
  store float 0.000000e+00, ptr %lim_fact, align 4
  br label %if.end16

if.else15:                                        ; preds = %if.else12
  store float 1.000000e+00, ptr %lim_fact, align 4
  br label %if.end16

if.end16:                                         ; preds = %if.else15, %if.then14
  br label %if.end17

if.end17:                                         ; preds = %if.end16, %if.then9
  br label %if.end36

if.else18:                                        ; preds = %if.end4
  %17 = load float, ptr %delta_max, align 4
  %cmp19 = fcmp ogt float %17, 0.000000e+00
  br i1 %cmp19, label %if.then20, label %if.else34

if.then20:                                        ; preds = %if.else18
  %18 = load float, ptr %pos.addr, align 4
  %19 = load float, ptr %uppLim.addr, align 4
  %cmp21 = fcmp ole float %18, %19
  br i1 %cmp21, label %land.lhs.true22, label %if.else28

land.lhs.true22:                                  ; preds = %if.then20
  %20 = load float, ptr %pos.addr, align 4
  %21 = load float, ptr %uppLim.addr, align 4
  %22 = load float, ptr %delta_max, align 4
  %sub23 = fsub float %21, %22
  %cmp24 = fcmp ogt float %20, %sub23
  br i1 %cmp24, label %if.then25, label %if.else28

if.then25:                                        ; preds = %land.lhs.true22
  %23 = load float, ptr %uppLim.addr, align 4
  %24 = load float, ptr %pos.addr, align 4
  %sub26 = fsub float %23, %24
  %25 = load float, ptr %delta_max, align 4
  %div27 = fdiv float %sub26, %25
  store float %div27, ptr %lim_fact, align 4
  br label %if.end33

if.else28:                                        ; preds = %land.lhs.true22, %if.then20
  %26 = load float, ptr %pos.addr, align 4
  %27 = load float, ptr %uppLim.addr, align 4
  %cmp29 = fcmp ogt float %26, %27
  br i1 %cmp29, label %if.then30, label %if.else31

if.then30:                                        ; preds = %if.else28
  store float 0.000000e+00, ptr %lim_fact, align 4
  br label %if.end32

if.else31:                                        ; preds = %if.else28
  store float 1.000000e+00, ptr %lim_fact, align 4
  br label %if.end32

if.end32:                                         ; preds = %if.else31, %if.then30
  br label %if.end33

if.end33:                                         ; preds = %if.end32, %if.then25
  br label %if.end35

if.else34:                                        ; preds = %if.else18
  store float 0.000000e+00, ptr %lim_fact, align 4
  br label %if.end35

if.end35:                                         ; preds = %if.else34, %if.end33
  br label %if.end36

if.end36:                                         ; preds = %if.end35, %if.end17
  %28 = load float, ptr %lim_fact, align 4
  store float %28, ptr %retval, align 4
  br label %return

return:                                           ; preds = %if.end36, %if.then3, %if.then
  %29 = load float, ptr %retval, align 4
  ret float %29
}